target datalayout = "e-m:e-p270:32:32-p271:32:32-p272:64:64-i64:64-i128:128-f80:128-n8:16:32:64-S128"
target triple = "x86_64-unknown-linux-gnu"

%struct.bxt_ddi_phy_info = type { i8, i32, i32, i32, [2 x %struct.anon] }
%struct.anon = type { i32 }
%union.intel_ddi_buf_trans_entry = type { %struct.hsw_ddi_buf_trans }
%struct.hsw_ddi_buf_trans = type { i32, i32, i8 }

@.str = private unnamed_addr constant [33 x i8] c"%s %s: PHY not found for PORT %c\00", align 1
@.str.1 = private unnamed_addr constant [46 x i8] c"drivers/gpu/drm/i915/display/intel_dpio_phy.c\00", align 1
@bxt_ddi_phy_set_signal_levels.__already_done = internal unnamed_addr global i1 false, section ".data.once", align 1
@.str.2 = private unnamed_addr constant [10 x i8] c"%s %s: %s\00", align 1
@.str.3 = private unnamed_addr constant [25 x i8] c"drm_WARN_ON_ONCE(!trans)\00", align 1
@.str.4 = private unnamed_addr constant [65 x i8] c"[drm] *ERROR* Disabled scaling while ouniqetrangenmethod was set\00", align 1

; Function Attrs: fn_ret_thunk_extern nounwind null_pointer_is_valid
define dso_local void @bxt_port_to_phy_channel(ptr nocapture noundef readonly %0, i32 noundef %1, ptr nocapture noundef writeonly %2, ptr nocapture noundef writeonly %3) local_unnamed_addr #0 align 16 {
  %5 = getelementptr inbounds i8, ptr %0, i64 7184
  %6 = load i32, ptr %5, align 4
  %7 = and i32 %6, 268435456
  %8 = icmp eq i32 %7, 0
  %9 = select i1 %8, i32 2, i32 3
  %10 = select i1 %8, ptr @bxt_ddi_phy_info, ptr @glk_ddi_phy_info
  br label %11

11:                                               ; preds = %25, %4
  %12 = phi i32 [ 0, %4 ], [ %26, %25 ]
  %13 = zext nneg i32 %12 to i64
  %14 = getelementptr %struct.bxt_ddi_phy_info, ptr %10, i64 %13
  %15 = getelementptr inbounds i8, ptr %14, i64 16
  %16 = load i32, ptr %15, align 8
  %17 = icmp eq i32 %16, %1
  br i1 %17, label %41, label %18

18:                                               ; preds = %11
  %19 = load i8, ptr %14, align 8, !range !5, !noundef !6
  %20 = icmp eq i8 %19, 0
  br i1 %20, label %25, label %21

21:                                               ; preds = %18
  %22 = getelementptr i8, ptr %14, i64 20
  %23 = load i32, ptr %22, align 4
  %24 = icmp eq i32 %23, %1
  br i1 %24, label %41, label %25

25:                                               ; preds = %21, %18
  %26 = add nuw nsw i32 %12, 1
  %27 = icmp eq i32 %26, %9
  br i1 %27, label %28, label %11, !llvm.loop !7

28:                                               ; preds = %25
  tail call void asm sideeffect "897: nop\0A\09.pushsection .discard.instr_begin\0A\09.long 897b - .\0A\09.popsection\0A\09", "i,~{dirflag},~{fpsr},~{flags}"(i32 897) #6, !srcloc !10
  %29 = getelementptr inbounds i8, ptr %0, i64 8
  %30 = load ptr, ptr %29, align 8
  %31 = tail call ptr @dev_driver_string(ptr noundef %30) #6
  %32 = load ptr, ptr %29, align 8
  %33 = getelementptr inbounds i8, ptr %32, i64 80
  %34 = load ptr, ptr %33, align 8
  %35 = icmp eq ptr %34, null
  br i1 %35, label %36, label %38

36:                                               ; preds = %28
  %37 = load ptr, ptr %32, align 8
  br label %38

38:                                               ; preds = %36, %28
  %39 = phi ptr [ %37, %36 ], [ %34, %28 ]
  %40 = add i32 %1, 65
  tail call void (ptr, ...) @__warn_printk(ptr noundef nonnull @.str, ptr noundef %31, ptr noundef %39, i32 noundef %40) #6
  tail call void asm sideeffect "898: nop\0A\09.pushsection .discard.instr_begin\0A\09.long 898b - .\0A\09.popsection\0A\09", "i,~{dirflag},~{fpsr},~{flags}"(i32 898) #6, !srcloc !11
  tail call void asm sideeffect "1:\09.byte 0x0f, 0x0b\0A.pushsection __bug_table,\22aw\22\0A2:\09.long 1b - .\09# bug_entry::bug_addr\0A\09.long ${0:c} - .\09# bug_entry::file\0A\09.word ${1:c}\09# bug_entry::line\0A\09.word ${2:c}\09# bug_entry::flags\0A\09.org 2b+${3:c}\0A.popsection\0A998:\0A\09.pushsection .discard.reachable\0A\09.long 998b\0A\09.popsection\0A\09", "i,i,i,i,~{dirflag},~{fpsr},~{flags}"(ptr nonnull @.str.1, i32 267, i32 2313, i64 12) #6, !srcloc !12
  tail call void asm sideeffect "899: nop\0A\09.pushsection .discard.instr_end\0A\09.long 899b - .\0A\09.popsection\0A\09", "i,~{dirflag},~{fpsr},~{flags}"(i32 899) #6, !srcloc !13
  tail call void asm sideeffect "900: nop\0A\09.pushsection .discard.instr_end\0A\09.long 900b - .\0A\09.popsection\0A\09", "i,~{dirflag},~{fpsr},~{flags}"(i32 900) #6, !srcloc !14
  br label %41

41:                                               ; preds = %38, %21, %11
  %42 = phi i32 [ 0, %38 ], [ %12, %11 ], [ %12, %21 ]
  %43 = phi i32 [ 0, %38 ], [ 1, %21 ], [ 0, %11 ]
  store i32 %42, ptr %2, align 4
  store i32 %43, ptr %3, align 4
  ret void
}

; Function Attrs: fn_ret_thunk_extern nounwind null_pointer_is_valid
define dso_local void @bxt_ddi_phy_set_signal_levels(ptr noundef %0, ptr noundef %1) local_unnamed_addr #0 align 16 {
  %3 = alloca i32, align 4
  %4 = alloca i32, align 4
  %5 = alloca i32, align 4
  %6 = load ptr, ptr %0, align 8
  %7 = tail call i32 @intel_ddi_level(ptr noundef %0, ptr noundef %1, i32 noundef 0) #6
  call void @llvm.lifetime.start.p0(i64 4, ptr nonnull %3) #6
  store i32 0, ptr %3, align 4, !annotation !15
  call void @llvm.lifetime.start.p0(i64 4, ptr nonnull %4) #6
  store i32 0, ptr %4, align 4, !annotation !15
  call void @llvm.lifetime.start.p0(i64 4, ptr nonnull %5) #6
  store i32 0, ptr %5, align 4, !annotation !15
  %8 = getelementptr inbounds i8, ptr %0, i64 352
  %9 = load ptr, ptr %8, align 8
  %10 = call ptr %9(ptr noundef %0, ptr noundef %1, ptr noundef nonnull %5) #6
  %11 = icmp ne ptr %10, null
  %12 = load i1, ptr @bxt_ddi_phy_set_signal_levels.__already_done, align 1
  %13 = select i1 %11, i1 true, i1 %12
  br i1 %13, label %26, label %14, !prof !16

14:                                               ; preds = %2
  store i1 true, ptr @bxt_ddi_phy_set_signal_levels.__already_done, align 1
  call void asm sideeffect "901: nop\0A\09.pushsection .discard.instr_begin\0A\09.long 901b - .\0A\09.popsection\0A\09", "i,~{dirflag},~{fpsr},~{flags}"(i32 901) #6, !srcloc !17
  %15 = getelementptr inbounds i8, ptr %6, i64 8
  %16 = load ptr, ptr %15, align 8
  %17 = call ptr @dev_driver_string(ptr noundef %16) #6
  %18 = load ptr, ptr %15, align 8
  %19 = getelementptr inbounds i8, ptr %18, i64 80
  %20 = load ptr, ptr %19, align 8
  %21 = icmp eq ptr %20, null
  br i1 %21, label %22, label %24

22:                                               ; preds = %14
  %23 = load ptr, ptr %18, align 8
  br label %24

24:                                               ; preds = %22, %14
  %25 = phi ptr [ %23, %22 ], [ %20, %14 ]
  call void (ptr, ...) @__warn_printk(ptr noundef nonnull @.str.2, ptr noundef %17, ptr noundef %25, ptr noundef nonnull @.str.3) #6
  call void asm sideeffect "902: nop\0A\09.pushsection .discard.instr_begin\0A\09.long 902b - .\0A\09.popsection\0A\09", "i,~{dirflag},~{fpsr},~{flags}"(i32 902) #6, !srcloc !18
  call void asm sideeffect "1:\09.byte 0x0f, 0x0b\0A.pushsection __bug_table,\22aw\22\0A2:\09.long 1b - .\09# bug_entry::bug_addr\0A\09.long ${0:c} - .\09# bug_entry::file\0A\09.word ${1:c}\09# bug_entry::line\0A\09.word ${2:c}\09# bug_entry::flags\0A\09.org 2b+${3:c}\0A.popsection\0A998:\0A\09.pushsection .discard.reachable\0A\09.long 998b\0A\09.popsection\0A\09", "i,i,i,i,~{dirflag},~{fpsr},~{flags}"(ptr nonnull @.str.1, i32 284, i32 2313, i64 12) #6, !srcloc !19
  call void asm sideeffect "903: nop\0A\09.pushsection .discard.instr_end\0A\09.long 903b - .\0A\09.popsection\0A\09", "i,~{dirflag},~{fpsr},~{flags}"(i32 903) #6, !srcloc !20
  call void asm sideeffect "904: nop\0A\09.pushsection .discard.instr_end\0A\09.long 904b - .\0A\09.popsection\0A\09", "i,~{dirflag},~{fpsr},~{flags}"(i32 904) #6, !srcloc !21
  br label %26

26:                                               ; preds = %24, %2
  br i1 %11, label %27, label %126

27:                                               ; preds = %26
  %28 = getelementptr inbounds i8, ptr %0, i64 132
  %29 = load i32, ptr %28, align 4
  call void @bxt_port_to_phy_channel(ptr noundef %6, i32 noundef %29, ptr noundef nonnull %4, ptr noundef nonnull %3)
  %30 = load i32, ptr %4, align 4
  %31 = icmp eq i32 %30, 0
  %32 = shl i32 %30, 12
  %33 = add i32 %32, 1445888
  %34 = select i1 %31, i32 442368, i32 %33
  %35 = load i32, ptr %3, align 4
  %36 = shl i32 %35, 10
  %37 = add i32 %34, %36
  %38 = add i32 %37, 1064
  %39 = getelementptr inbounds i8, ptr %6, i64 7368
  %40 = getelementptr inbounds i8, ptr %6, i64 7512
  %41 = load ptr, ptr %40, align 8
  %42 = call i32 %41(ptr noundef %39, i32 %38, i1 noundef zeroext true) #6
  %43 = and i32 %42, 1073741823
  %44 = shl i32 %35, 9
  %45 = add i32 %34, %44
  %46 = add i32 %45, 3112
  %47 = getelementptr inbounds i8, ptr %6, i64 7544
  %48 = load ptr, ptr %47, align 8
  call void %48(ptr noundef %39, i32 %46, i32 noundef %43, i1 noundef zeroext true) #6
  %49 = add i32 %34, %36
  %50 = add i32 %49, 1288
  %51 = load ptr, ptr %40, align 8
  %52 = call i32 %51(ptr noundef %39, i32 %50, i1 noundef zeroext true) #6
  %53 = and i32 %52, -16776961
  %54 = load ptr, ptr %10, align 8
  %55 = sext i32 %7 to i64
  %56 = getelementptr %union.intel_ddi_buf_trans_entry, ptr %54, i64 %55
  %57 = load i8, ptr %56, align 4
  %58 = zext i8 %57 to i32
  %59 = shl nuw nsw i32 %58, 16
  %60 = getelementptr inbounds i8, ptr %56, i64 1
  %61 = load i8, ptr %60, align 1
  %62 = zext i8 %61 to i32
  %63 = shl nuw nsw i32 %62, 8
  %64 = or disjoint i32 %59, %53
  %65 = or disjoint i32 %64, %63
  %66 = add i32 %34, %44
  %67 = add i32 %66, 3336
  %68 = load ptr, ptr %47, align 8
  call void %68(ptr noundef %39, i32 %67, i32 noundef %65, i1 noundef zeroext true) #6
  %69 = add i32 %34, %36
  %70 = add i32 %69, 1292
  %71 = load ptr, ptr %40, align 8
  %72 = call i32 %71(ptr noundef %39, i32 %70, i1 noundef zeroext true) #6
  %73 = and i32 %72, -67108865
  %74 = load ptr, ptr %10, align 8
  %75 = getelementptr %union.intel_ddi_buf_trans_entry, ptr %74, i64 %55
  %76 = getelementptr inbounds i8, ptr %75, i64 2
  %77 = load i8, ptr %76, align 2
  %78 = icmp eq i8 %77, 0
  %79 = select i1 %78, i32 0, i32 67108864
  %80 = or disjoint i32 %79, %73
  %81 = and i32 %72, 134217728
  %82 = icmp ne i32 %81, 0
  %83 = and i1 %82, %78
  br i1 %83, label %84, label %91

84:                                               ; preds = %27
  %85 = icmp eq ptr %6, null
  br i1 %85, label %89, label %86

86:                                               ; preds = %84
  %87 = getelementptr inbounds i8, ptr %6, i64 8
  %88 = load ptr, ptr %87, align 8
  br label %89

89:                                               ; preds = %86, %84
  %90 = phi ptr [ %88, %86 ], [ null, %84 ]
  call void (ptr, ptr, ...) @_dev_err(ptr noundef %90, ptr noundef nonnull @.str.4) #7
  br label %91

91:                                               ; preds = %89, %27
  %92 = load i32, ptr %4, align 4
  %93 = icmp eq i32 %92, 0
  %94 = shl i32 %92, 12
  %95 = add i32 %94, 1445888
  %96 = select i1 %93, i32 442368, i32 %95
  %97 = load i32, ptr %3, align 4
  %98 = shl i32 %97, 9
  %99 = add i32 %96, %98
  %100 = add i32 %99, 3340
  %101 = load ptr, ptr %47, align 8
  call void %101(ptr noundef %39, i32 %100, i32 noundef %80, i1 noundef zeroext true) #6
  %102 = shl i32 %97, 10
  %103 = add i32 %96, %102
  %104 = add i32 %103, 1296
  %105 = load ptr, ptr %40, align 8
  %106 = call i32 %105(ptr noundef %39, i32 %104, i1 noundef zeroext true) #6
  %107 = and i32 %106, 16777215
  %108 = load ptr, ptr %10, align 8
  %109 = getelementptr %union.intel_ddi_buf_trans_entry, ptr %108, i64 %55
  %110 = getelementptr inbounds i8, ptr %109, i64 3
  %111 = load i8, ptr %110, align 1
  %112 = zext i8 %111 to i32
  %113 = shl nuw i32 %112, 24
  %114 = or disjoint i32 %113, %107
  %115 = add i32 %96, %98
  %116 = add i32 %115, 3344
  %117 = load ptr, ptr %47, align 8
  call void %117(ptr noundef %39, i32 %116, i32 noundef %114, i1 noundef zeroext true) #6
  %118 = add i32 %96, %102
  %119 = add i32 %118, 1064
  %120 = load ptr, ptr %40, align 8
  %121 = call i32 %120(ptr noundef %39, i32 %119, i1 noundef zeroext true) #6
  %122 = or i32 %121, -1073741824
  %123 = add i32 %96, %98
  %124 = add i32 %123, 3112
  %125 = load ptr, ptr %47, align 8
  call void %125(ptr noundef %39, i32 %124, i32 noundef %122, i1 noundef zeroext true) #6
  br label %126

126:                                              ; preds = %91, %26
  call void @llvm.lifetime.end.p0(i64 4, ptr nonnull %5) #6
  call void @llvm.lifetime.end.p0(i64 4, ptr nonnull %4) #6
  call void @llvm.lifetime.end.p0(i64 4, ptr nonnull %3) #6
  ret void
}