; Function Attrs: fn_ret_thunk_extern nounwind null_pointer_is_valid
define dso_local void @bxt_ddi_phy_set_signal_levels(ptr noundef %0, ptr noundef %1) local_unnamed_addr #0 align 16 {
  %3 = alloca i32, align 4
  %4 = load ptr, ptr %0, align 8
  %5 = tail call i32 @intel_ddi_level(ptr noundef %0, ptr noundef %1, i32 noundef 0) #6
  call void @llvm.lifetime.start.p0(i64 4, ptr nonnull %3) #6
  store i32 0, ptr %3, align 4, !annotation !15
  %6 = getelementptr inbounds i8, ptr %0, i64 352
  %7 = load ptr, ptr %6, align 8
  %8 = call ptr %7(ptr noundef %0, ptr noundef %1, ptr noundef nonnull %3) #6
  %9 = icmp ne ptr %8, null
  %10 = load i1, ptr @bxt_ddi_phy_set_signal_levels.__already_done, align 1
  %11 = select i1 %9, i1 true, i1 %10
  br i1 %11, label %23, label %12, !prof !16

12:                                               ; preds = %2
  store i1 true, ptr @bxt_ddi_phy_set_signal_levels.__already_done, align 1
  call void asm sideeffect "901: nop\0A\09.pushsection .discard.instr_begin\0A\09.long 901b - .\0A\09.popsection\0A\09", "i,~{dirflag},~{fpsr},~{flags}"(i32 901) #6, !srcloc !17
  %13 = getelementptr inbounds i8, ptr %4, i64 8
  %14 = load ptr, ptr %13, align 8
  %15 = call ptr @dev_driver_string(ptr noundef %14) #6
  %16 = load ptr, ptr %13, align 8
  %17 = getelementptr inbounds i8, ptr %16, i64 80
  %18 = load ptr, ptr %17, align 8
  %19 = icmp eq ptr %18, null
  br i1 %19, label %20, label %.thread

20:                                               ; preds = %12
  %21 = load ptr, ptr %16, align 8
  br label %.thread

.thread:                                          ; preds = %12, %20
  %22 = phi ptr [ %21, %20 ], [ %18, %12 ]
  call void (ptr, ...) @__warn_printk(ptr noundef nonnull @.str.2, ptr noundef %15, ptr noundef %22, ptr noundef nonnull @.str.3) #6
  call void asm sideeffect "902: nop\0A\09.pushsection .discard.instr_begin\0A\09.long 902b - .\0A\09.popsection\0A\09", "i,~{dirflag},~{fpsr},~{flags}"(i32 902) #6, !srcloc !18
  call void asm sideeffect "1:\09.byte 0x0f, 0x0b\0A.pushsection __bug_table,\22aw\22\0A2:\09.long 1b - .\09# bug_entry::bug_addr\0A\09.long ${0:c} - .\09# bug_entry::file\0A\09.word ${1:c}\09# bug_entry::line\0A\09.word ${2:c}\09# bug_entry::flags\0A\09.org 2b+${3:c}\0A.popsection\0A998:\0A\09.pushsection .discard.reachable\0A\09.long 998b\0A\09.popsection\0A\09", "i,i,i,i,~{dirflag},~{fpsr},~{flags}"(ptr nonnull @.str.1, i32 284, i32 2313, i64 12) #6, !srcloc !19
  call void asm sideeffect "903: nop\0A\09.pushsection .discard.instr_end\0A\09.long 903b - .\0A\09.popsection\0A\09", "i,~{dirflag},~{fpsr},~{flags}"(i32 903) #6, !srcloc !20
  call void asm sideeffect "904: nop\0A\09.pushsection .discard.instr_end\0A\09.long 904b - .\0A\09.popsection\0A\09", "i,~{dirflag},~{fpsr},~{flags}"(i32 904) #6, !srcloc !21
  br label %138

23:                                               ; preds = %2
  br i1 %9, label %24, label %138

24:                                               ; preds = %23
  %25 = getelementptr inbounds i8, ptr %0, i64 132
  %26 = load i32, ptr %25, align 4
  %27 = getelementptr inbounds i8, ptr %4, i64 7184
  %28 = load i32, ptr %27, align 4
  %29 = and i32 %28, 268435456
  %30 = icmp eq i32 %29, 0
  %31 = select i1 %30, i64 2, i64 3
  %32 = select i1 %30, ptr @bxt_ddi_phy_info, ptr @glk_ddi_phy_info
  br label %33

33:                                               ; preds = %45, %24
  %indvars.iv.i = phi i64 [ %indvars.iv.next.i, %45 ], [ 0, %24 ]
  %34 = getelementptr %struct.bxt_ddi_phy_info, ptr %32, i64 %indvars.iv.i
  %35 = getelementptr inbounds i8, ptr %34, i64 16
  %36 = load i32, ptr %35, align 8
  %37 = icmp eq i32 %36, %26
  br i1 %37, label %bxt_port_to_phy_channel.exit, label %38

38:                                               ; preds = %33
  %39 = load i8, ptr %34, align 8, !range !5, !noundef !6
  %40 = icmp eq i8 %39, 0
  br i1 %40, label %45, label %41

41:                                               ; preds = %38
  %42 = getelementptr i8, ptr %34, i64 20
  %43 = load i32, ptr %42, align 4
  %44 = icmp eq i32 %43, %26
  br i1 %44, label %bxt_port_to_phy_channel.exit, label %45

45:                                               ; preds = %41, %38
  %indvars.iv.next.i = add nuw nsw i64 %indvars.iv.i, 1
  %46 = icmp eq i64 %indvars.iv.next.i, %31
  br i1 %46, label %47, label %33, !llvm.loop !7

47:                                               ; preds = %45
  call void asm sideeffect "897: nop\0A\09.pushsection .discard.instr_begin\0A\09.long 897b - .\0A\09.popsection\0A\09", "i,~{dirflag},~{fpsr},~{flags}"(i32 897) #6, !srcloc !10
  %48 = getelementptr inbounds i8, ptr %4, i64 8
  %49 = load ptr, ptr %48, align 8
  %50 = call ptr @dev_driver_string(ptr noundef %49) #6
  %51 = load ptr, ptr %48, align 8
  %52 = getelementptr inbounds i8, ptr %51, i64 80
  %53 = load ptr, ptr %52, align 8
  %54 = icmp eq ptr %53, null
  br i1 %54, label %55, label %bxt_port_to_phy_channel.exit.thread

55:                                               ; preds = %47
  %56 = load ptr, ptr %51, align 8
  br label %bxt_port_to_phy_channel.exit.thread

bxt_port_to_phy_channel.exit.thread:              ; preds = %47, %55
  %57 = phi ptr [ %56, %55 ], [ %53, %47 ]
  %58 = add i32 %26, 65
  call void (ptr, ...) @__warn_printk(ptr noundef nonnull @.str, ptr noundef %50, ptr noundef %57, i32 noundef %58) #6
  call void asm sideeffect "898: nop\0A\09.pushsection .discard.instr_begin\0A\09.long 898b - .\0A\09.popsection\0A\09", "i,~{dirflag},~{fpsr},~{flags}"(i32 898) #6, !srcloc !11
  call void asm sideeffect "1:\09.byte 0x0f, 0x0b\0A.pushsection __bug_table,\22aw\22\0A2:\09.long 1b - .\09# bug_entry::bug_addr\0A\09.long ${0:c} - .\09# bug_entry::file\0A\09.word ${1:c}\09# bug_entry::line\0A\09.word ${2:c}\09# bug_entry::flags\0A\09.org 2b+${3:c}\0A.popsection\0A998:\0A\09.pushsection .discard.reachable\0A\09.long 998b\0A\09.popsection\0A\09", "i,i,i,i,~{dirflag},~{fpsr},~{flags}"(ptr nonnull @.str.1, i32 267, i32 2313, i64 12) #6, !srcloc !12
  call void asm sideeffect "899: nop\0A\09.pushsection .discard.instr_end\0A\09.long 899b - .\0A\09.popsection\0A\09", "i,~{dirflag},~{fpsr},~{flags}"(i32 899) #6, !srcloc !13
  call void asm sideeffect "900: nop\0A\09.pushsection .discard.instr_end\0A\09.long 900b - .\0A\09.popsection\0A\09", "i,~{dirflag},~{fpsr},~{flags}"(i32 900) #6, !srcloc !14
  br label %63

bxt_port_to_phy_channel.exit:                     ; preds = %33, %41
  %.ph.i = phi i32 [ 0, %33 ], [ 1, %41 ]
  %59 = trunc i64 %indvars.iv.i to i32
  %60 = icmp eq i32 %59, 0
  %61 = shl i32 %59, 12
  %62 = add i32 %61, 1445888
  %spec.select = select i1 %60, i32 442368, i32 %62
  br label %63

63:                                               ; preds = %bxt_port_to_phy_channel.exit, %bxt_port_to_phy_channel.exit.thread
  %64 = phi i32 [ 0, %bxt_port_to_phy_channel.exit.thread ], [ %.ph.i, %bxt_port_to_phy_channel.exit ]
  %65 = phi i32 [ 442368, %bxt_port_to_phy_channel.exit.thread ], [ %spec.select, %bxt_port_to_phy_channel.exit ]
  %66 = shl nuw nsw i32 %64, 10
  %67 = add i32 %65, %66
  %68 = add i32 %67, 1064
  %69 = getelementptr inbounds i8, ptr %4, i64 7368
  %70 = getelementptr inbounds i8, ptr %4, i64 7512
  %71 = load ptr, ptr %70, align 8
  %72 = call i32 %71(ptr noundef %69, i32 %68, i1 noundef zeroext true) #6
  %73 = and i32 %72, 1073741823
  %74 = shl nuw nsw i32 %64, 9
  %75 = add i32 %65, %74
  %76 = add i32 %75, 3112
  %77 = getelementptr inbounds i8, ptr %4, i64 7544
  %78 = load ptr, ptr %77, align 8
  call void %78(ptr noundef %69, i32 %76, i32 noundef %73, i1 noundef zeroext true) #6
  %79 = add i32 %67, 1288
  %80 = load ptr, ptr %70, align 8
  %81 = call i32 %80(ptr noundef %69, i32 %79, i1 noundef zeroext true) #6
  %82 = and i32 %81, -16776961
  %83 = load ptr, ptr %8, align 8
  %84 = sext i32 %5 to i64
  %85 = getelementptr %union.intel_ddi_buf_trans_entry, ptr %83, i64 %84
  %86 = load i8, ptr %85, align 4
  %87 = zext i8 %86 to i32
  %88 = shl nuw nsw i32 %87, 16
  %89 = getelementptr inbounds i8, ptr %85, i64 1
  %90 = load i8, ptr %89, align 1
  %91 = zext i8 %90 to i32
  %92 = shl nuw nsw i32 %91, 8
  %93 = or disjoint i32 %88, %82
  %94 = or disjoint i32 %93, %92
  %95 = add i32 %75, 3336
  %96 = load ptr, ptr %77, align 8
  call void %96(ptr noundef %69, i32 %95, i32 noundef %94, i1 noundef zeroext true) #6
  %97 = add i32 %67, 1292
  %98 = load ptr, ptr %70, align 8
  %99 = call i32 %98(ptr noundef %69, i32 %97, i1 noundef zeroext true) #6
  %100 = and i32 %99, -67108865
  %101 = load ptr, ptr %8, align 8
  %102 = getelementptr %union.intel_ddi_buf_trans_entry, ptr %101, i64 %84
  %103 = getelementptr inbounds i8, ptr %102, i64 2
  %104 = load i8, ptr %103, align 2
  %105 = icmp eq i8 %104, 0
  %106 = select i1 %105, i32 0, i32 67108864
  %107 = or disjoint i32 %106, %100
  %108 = and i32 %99, 134217728
  %109 = icmp ne i32 %108, 0
  %110 = and i1 %109, %105
  br i1 %110, label %111, label %118

111:                                              ; preds = %63
  %112 = icmp eq ptr %4, null
  br i1 %112, label %116, label %113

113:                                              ; preds = %111
  %114 = getelementptr inbounds i8, ptr %4, i64 8
  %115 = load ptr, ptr %114, align 8
  br label %116

116:                                              ; preds = %113, %111
  %117 = phi ptr [ %115, %113 ], [ null, %111 ]
  call void (ptr, ptr, ...) @_dev_err(ptr noundef %117, ptr noundef nonnull @.str.4) #7
  br label %118

118:                                              ; preds = %116, %63
  %119 = add i32 %75, 3340
  %120 = load ptr, ptr %77, align 8
  call void %120(ptr noundef %69, i32 %119, i32 noundef %107, i1 noundef zeroext true) #6
  %121 = add i32 %67, 1296
  %122 = load ptr, ptr %70, align 8
  %123 = call i32 %122(ptr noundef %69, i32 %121, i1 noundef zeroext true) #6
  %124 = and i32 %123, 16777215
  %125 = load ptr, ptr %8, align 8
  %126 = getelementptr %union.intel_ddi_buf_trans_entry, ptr %125, i64 %84
  %127 = getelementptr inbounds i8, ptr %126, i64 3
  %128 = load i8, ptr %127, align 1
  %129 = zext i8 %128 to i32
  %130 = shl nuw i32 %129, 24
  %131 = or disjoint i32 %130, %124
  %132 = add i32 %75, 3344
  %133 = load ptr, ptr %77, align 8
  call void %133(ptr noundef %69, i32 %132, i32 noundef %131, i1 noundef zeroext true) #6
  %134 = load ptr, ptr %70, align 8
  %135 = call i32 %134(ptr noundef %69, i32 %68, i1 noundef zeroext true) #6
  %136 = or i32 %135, -1073741824
  %137 = load ptr, ptr %77, align 8
  call void %137(ptr noundef %69, i32 %76, i32 noundef %136, i1 noundef zeroext true) #6
  br label %138

138:                                              ; preds = %.thread, %118, %23
  call void @llvm.lifetime.end.p0(i64 4, ptr nonnull %3) #6
  ret void
}